; Function Attrs: nounwind uwtable
define noundef zeroext range(i8 0, 2) i8 @l_Lean_RBNode_all___rarg(ptr noundef %0, ptr noundef %1) local_unnamed_addr #1 {
  %3 = ptrtoint ptr %0 to i64
  %4 = and i64 %3, 1
  %.not89 = icmp eq i64 %4, 0
  br label %lean_dec.exit38

lean_dec.exit38:                                  ; preds = %lean_inc.exit, %2
  %.032 = phi ptr [ %1, %2 ], [ %54, %lean_inc.exit ]
  %5 = ptrtoint ptr %.032 to i64
  %6 = and i64 %5, 1
  %.not.i63 = icmp eq i64 %6, 0
  br i1 %.not.i63, label %10, label %7

7:                                                ; preds = %lean_dec.exit38
  %8 = lshr i64 %5, 1
  %9 = trunc i64 %8 to i32
  br label %lean_obj_tag.exit

10:                                               ; preds = %lean_dec.exit38
  %11 = getelementptr i8, ptr %.032, i64 4
  %.val.i = load i32, ptr %11, align 4
  %12 = lshr i32 %.val.i, 24
  br label %lean_obj_tag.exit

lean_obj_tag.exit:                                ; preds = %7, %10
  %.0.i = phi i32 [ %9, %7 ], [ %12, %10 ]
  %13 = icmp eq i32 %.0.i, 0
  br i1 %13, label %14, label %22

14:                                               ; preds = %lean_obj_tag.exit
  br i1 %.not89, label %15, label %lean_dec.exit43

15:                                               ; preds = %14
  %16 = load i32, ptr %0, align 4, !tbaa !4
  %17 = icmp sgt i32 %16, 1
  br i1 %17, label %18, label %20, !prof !9

18:                                               ; preds = %15
  %19 = add nsw i32 %16, -1
  store i32 %19, ptr %0, align 4, !tbaa !4
  br label %lean_dec.exit43

20:                                               ; preds = %15
  %.not.i = icmp eq i32 %16, 0
  br i1 %.not.i, label %lean_dec.exit43, label %21

21:                                               ; preds = %20
  tail call void @lean_dec_ref_cold(ptr noundef nonnull %0) #9
  br label %lean_dec.exit43

22:                                               ; preds = %lean_obj_tag.exit
  %23 = getelementptr inbounds nuw i8, ptr %.032, i64 8
  %24 = load ptr, ptr %23, align 8, !tbaa !10
  %25 = ptrtoint ptr %24 to i64
  %26 = and i64 %25, 1
  %.not = icmp eq i64 %26, 0
  br i1 %.not, label %27, label %lean_inc.exit48

27:                                               ; preds = %22
  %.val.i64 = load i32, ptr %24, align 4, !tbaa !4
  %28 = icmp sgt i32 %.val.i64, 0
  br i1 %28, label %29, label %31, !prof !9

29:                                               ; preds = %27
  %30 = add nuw i32 %.val.i64, 1
  store i32 %30, ptr %24, align 4, !tbaa !4
  br label %lean_inc.exit48

31:                                               ; preds = %27
  %.not.i65 = icmp eq i32 %.val.i64, 0
  br i1 %.not.i65, label %lean_inc.exit48, label %32

32:                                               ; preds = %31
  tail call void @lean_inc_ref_cold(ptr noundef nonnull %24) #9
  br label %lean_inc.exit48

lean_inc.exit48:                                  ; preds = %32, %31, %29, %22
  %33 = getelementptr inbounds nuw i8, ptr %.032, i64 16
  %34 = load ptr, ptr %33, align 8, !tbaa !10
  %35 = ptrtoint ptr %34 to i64
  %36 = and i64 %35, 1
  %.not85 = icmp eq i64 %36, 0
  br i1 %.not85, label %37, label %lean_inc.exit47

37:                                               ; preds = %lean_inc.exit48
  %.val.i66 = load i32, ptr %34, align 4, !tbaa !4
  %38 = icmp sgt i32 %.val.i66, 0
  br i1 %38, label %39, label %41, !prof !9

39:                                               ; preds = %37
  %40 = add nuw i32 %.val.i66, 1
  store i32 %40, ptr %34, align 4, !tbaa !4
  br label %lean_inc.exit47

41:                                               ; preds = %37
  %.not.i67 = icmp eq i32 %.val.i66, 0
  br i1 %.not.i67, label %lean_inc.exit47, label %42

42:                                               ; preds = %41
  tail call void @lean_inc_ref_cold(ptr noundef nonnull %34) #9
  br label %lean_inc.exit47

lean_inc.exit47:                                  ; preds = %42, %41, %39, %lean_inc.exit48
  %43 = getelementptr inbounds nuw i8, ptr %.032, i64 24
  %44 = load ptr, ptr %43, align 8, !tbaa !10
  %45 = ptrtoint ptr %44 to i64
  %46 = and i64 %45, 1
  %.not86 = icmp eq i64 %46, 0
  br i1 %.not86, label %47, label %lean_inc.exit46

47:                                               ; preds = %lean_inc.exit47
  %.val.i69 = load i32, ptr %44, align 4, !tbaa !4
  %48 = icmp sgt i32 %.val.i69, 0
  br i1 %48, label %49, label %51, !prof !9

49:                                               ; preds = %47
  %50 = add nuw i32 %.val.i69, 1
  store i32 %50, ptr %44, align 4, !tbaa !4
  br label %lean_inc.exit46

51:                                               ; preds = %47
  %.not.i70 = icmp eq i32 %.val.i69, 0
  br i1 %.not.i70, label %lean_inc.exit46, label %52

52:                                               ; preds = %51
  tail call void @lean_inc_ref_cold(ptr noundef nonnull %44) #9
  br label %lean_inc.exit46

lean_inc.exit46:                                  ; preds = %52, %51, %49, %lean_inc.exit47
  %53 = getelementptr inbounds nuw i8, ptr %.032, i64 32
  %54 = load ptr, ptr %53, align 8, !tbaa !10
  %55 = ptrtoint ptr %54 to i64
  %56 = and i64 %55, 1
  %.not87 = icmp eq i64 %56, 0
  br i1 %.not87, label %57, label %lean_inc.exit45

57:                                               ; preds = %lean_inc.exit46
  %.val.i72 = load i32, ptr %54, align 4, !tbaa !4
  %58 = icmp sgt i32 %.val.i72, 0
  br i1 %58, label %59, label %61, !prof !9

59:                                               ; preds = %57
  %60 = add nuw i32 %.val.i72, 1
  store i32 %60, ptr %54, align 4, !tbaa !4
  br label %lean_inc.exit45

61:                                               ; preds = %57
  %.not.i73 = icmp eq i32 %.val.i72, 0
  br i1 %.not.i73, label %lean_inc.exit45, label %62

62:                                               ; preds = %61
  tail call void @lean_inc_ref_cold(ptr noundef nonnull %54) #9
  br label %lean_inc.exit45

lean_inc.exit45:                                  ; preds = %62, %61, %59, %lean_inc.exit46
  br i1 %.not.i63, label %63, label %lean_dec.exit42

63:                                               ; preds = %lean_inc.exit45
  %64 = load i32, ptr %.032, align 4, !tbaa !4
  %65 = icmp sgt i32 %64, 1
  br i1 %65, label %66, label %68, !prof !9

66:                                               ; preds = %63
  %67 = add nsw i32 %64, -1
  store i32 %67, ptr %.032, align 4, !tbaa !4
  br label %lean_dec.exit42

68:                                               ; preds = %63
  %.not.i49 = icmp eq i32 %64, 0
  br i1 %.not.i49, label %lean_dec.exit42, label %69

69:                                               ; preds = %68
  tail call void @lean_dec_ref_cold(ptr noundef nonnull %.032) #9
  br label %lean_dec.exit42

lean_dec.exit42:                                  ; preds = %69, %68, %66, %lean_inc.exit45
  br i1 %.not89, label %70, label %lean_inc.exit44

70:                                               ; preds = %lean_dec.exit42
  %.val.i75 = load i32, ptr %0, align 4, !tbaa !4
  %71 = icmp sgt i32 %.val.i75, 0
  br i1 %71, label %72, label %74, !prof !9

72:                                               ; preds = %70
  %73 = add nuw i32 %.val.i75, 1
  store i32 %73, ptr %0, align 4, !tbaa !4
  br label %lean_inc.exit44

74:                                               ; preds = %70
  %.not.i76 = icmp eq i32 %.val.i75, 0
  br i1 %.not.i76, label %lean_inc.exit44, label %75

75:                                               ; preds = %74
  tail call void @lean_inc_ref_cold(ptr noundef nonnull %0) #9
  br label %lean_inc.exit44

lean_inc.exit44:                                  ; preds = %75, %74, %72, %lean_dec.exit42
  %76 = tail call ptr @lean_apply_2(ptr noundef %0, ptr noundef %34, ptr noundef %44) #9
  %77 = ptrtoint ptr %76 to i64
  %78 = and i64 %77, 1
  %.not90 = icmp eq i64 %78, 0
  br i1 %.not90, label %79, label %lean_dec.exit41

79:                                               ; preds = %lean_inc.exit44
  %80 = load i32, ptr %76, align 4, !tbaa !4
  %81 = icmp sgt i32 %80, 1
  br i1 %81, label %82, label %84, !prof !9

82:                                               ; preds = %79
  %83 = add nsw i32 %80, -1
  store i32 %83, ptr %76, align 4, !tbaa !4
  br label %lean_dec.exit41

84:                                               ; preds = %79
  %.not.i51 = icmp eq i32 %80, 0
  br i1 %.not.i51, label %lean_dec.exit41, label %85

85:                                               ; preds = %84
  tail call void @lean_dec_ref_cold(ptr noundef nonnull %76) #9
  br label %lean_dec.exit41

lean_dec.exit41:                                  ; preds = %85, %84, %82, %lean_inc.exit44
  %86 = and i64 %77, 510
  %87 = icmp eq i64 %86, 0
  br i1 %87, label %88, label %110

88:                                               ; preds = %lean_dec.exit41
  br i1 %.not87, label %89, label %lean_dec.exit40

89:                                               ; preds = %88
  %90 = load i32, ptr %54, align 4, !tbaa !4
  %91 = icmp sgt i32 %90, 1
  br i1 %91, label %92, label %94, !prof !9

92:                                               ; preds = %89
  %93 = add nsw i32 %90, -1
  store i32 %93, ptr %54, align 4, !tbaa !4
  br label %lean_dec.exit40

94:                                               ; preds = %89
  %.not.i53 = icmp eq i32 %90, 0
  br i1 %.not.i53, label %lean_dec.exit40, label %95

95:                                               ; preds = %94
  tail call void @lean_dec_ref_cold(ptr noundef nonnull %54) #9
  br label %lean_dec.exit40

lean_dec.exit40:                                  ; preds = %95, %94, %92, %88
  br i1 %.not, label %96, label %lean_dec.exit39

96:                                               ; preds = %lean_dec.exit40
  %97 = load i32, ptr %24, align 4, !tbaa !4
  %98 = icmp sgt i32 %97, 1
  br i1 %98, label %99, label %101, !prof !9

99:                                               ; preds = %96
  %100 = add nsw i32 %97, -1
  store i32 %100, ptr %24, align 4, !tbaa !4
  br label %lean_dec.exit39

101:                                              ; preds = %96
  %.not.i55 = icmp eq i32 %97, 0
  br i1 %.not.i55, label %lean_dec.exit39, label %102

102:                                              ; preds = %101
  tail call void @lean_dec_ref_cold(ptr noundef nonnull %24) #9
  br label %lean_dec.exit39

lean_dec.exit39:                                  ; preds = %102, %101, %99, %lean_dec.exit40
  br i1 %.not89, label %103, label %lean_dec.exit43

103:                                              ; preds = %lean_dec.exit39
  %104 = load i32, ptr %0, align 4, !tbaa !4
  %105 = icmp sgt i32 %104, 1
  br i1 %105, label %106, label %108, !prof !9

106:                                              ; preds = %103
  %107 = add nsw i32 %104, -1
  store i32 %107, ptr %0, align 4, !tbaa !4
  br label %lean_dec.exit43

108:                                              ; preds = %103
  %.not.i57 = icmp eq i32 %104, 0
  br i1 %.not.i57, label %lean_dec.exit43, label %109

109:                                              ; preds = %108
  tail call void @lean_dec_ref_cold(ptr noundef nonnull %0) #9
  br label %lean_dec.exit43

110:                                              ; preds = %lean_dec.exit41
  br i1 %.not89, label %111, label %lean_inc.exit

111:                                              ; preds = %110
  %.val.i78 = load i32, ptr %0, align 4, !tbaa !4
  %112 = icmp sgt i32 %.val.i78, 0
  br i1 %112, label %113, label %115, !prof !9

113:                                              ; preds = %111
  %114 = add nuw i32 %.val.i78, 1
  store i32 %114, ptr %0, align 4, !tbaa !4
  br label %lean_inc.exit

115:                                              ; preds = %111
  %.not.i79 = icmp eq i32 %.val.i78, 0
  br i1 %.not.i79, label %lean_inc.exit, label %116

116:                                              ; preds = %115
  tail call void @lean_inc_ref_cold(ptr noundef nonnull %0) #9
  br label %lean_inc.exit

lean_inc.exit:                                    ; preds = %116, %115, %113, %110
  %117 = tail call zeroext i8 @l_Lean_RBNode_all___rarg(ptr noundef %0, ptr noundef %24)
  %118 = icmp eq i8 %117, 0
  br i1 %118, label %119, label %lean_dec.exit38

119:                                              ; preds = %lean_inc.exit
  br i1 %.not87, label %120, label %lean_dec.exit37

120:                                              ; preds = %119
  %121 = load i32, ptr %54, align 4, !tbaa !4
  %122 = icmp sgt i32 %121, 1
  br i1 %122, label %123, label %125, !prof !9

123:                                              ; preds = %120
  %124 = add nsw i32 %121, -1
  store i32 %124, ptr %54, align 4, !tbaa !4
  br label %lean_dec.exit37

125:                                              ; preds = %120
  %.not.i59 = icmp eq i32 %121, 0
  br i1 %.not.i59, label %lean_dec.exit37, label %126

126:                                              ; preds = %125
  tail call void @lean_dec_ref_cold(ptr noundef nonnull %54) #9
  br label %lean_dec.exit37

lean_dec.exit37:                                  ; preds = %126, %125, %123, %119
  br i1 %.not89, label %127, label %lean_dec.exit43

127:                                              ; preds = %lean_dec.exit37
  %128 = load i32, ptr %0, align 4, !tbaa !4
  %129 = icmp sgt i32 %128, 1
  br i1 %129, label %130, label %132, !prof !9

130:                                              ; preds = %127
  %131 = add nsw i32 %128, -1
  store i32 %131, ptr %0, align 4, !tbaa !4
  br label %lean_dec.exit43

132:                                              ; preds = %127
  %.not.i61 = icmp eq i32 %128, 0
  br i1 %.not.i61, label %lean_dec.exit43, label %133

133:                                              ; preds = %132
  tail call void @lean_dec_ref_cold(ptr noundef nonnull %0) #9
  br label %lean_dec.exit43

lean_dec.exit43:                                  ; preds = %lean_dec.exit37, %130, %132, %133, %lean_dec.exit39, %106, %108, %109, %14, %18, %20, %21
  %.1 = phi i8 [ 1, %21 ], [ 1, %20 ], [ 1, %18 ], [ 1, %14 ], [ 0, %109 ], [ 0, %108 ], [ 0, %106 ], [ 0, %lean_dec.exit39 ], [ 0, %133 ], [ 0, %132 ], [ 0, %130 ], [ 0, %lean_dec.exit37 ]
  ret i8 %.1
}